; Function Attrs: nounwind uwtable
define ptr @l_Lean_Core_viewBinders___rarg___lambda__2(ptr noundef %0, ptr noundef %1, ptr noundef %2, ptr noundef %3, ptr noundef %4) #0 {
  %6 = getelementptr inbounds nuw i8, ptr %3, i64 8
  %7 = load ptr, ptr %6, align 8, !tbaa !9
  %8 = ptrtoint ptr %7 to i64
  %9 = and i64 %8, 1
  %.not = icmp eq i64 %9, 0
  br i1 %.not, label %10, label %lean_inc.exit27

10:                                               ; preds = %5
  %.val.i = load i32, ptr %7, align 4, !tbaa !4
  %11 = icmp sgt i32 %.val.i, 0
  br i1 %11, label %12, label %14, !prof !13

12:                                               ; preds = %10
  %13 = add nuw i32 %.val.i, 1
  store i32 %13, ptr %7, align 4, !tbaa !4
  br label %lean_inc.exit27

14:                                               ; preds = %10
  %.not.i28 = icmp eq i32 %.val.i, 0
  br i1 %.not.i28, label %lean_inc.exit27, label %15

15:                                               ; preds = %14
  tail call void @lean_inc_ref_cold(ptr noundef nonnull %7) #5
  br label %lean_inc.exit27

lean_inc.exit27:                                  ; preds = %15, %14, %12, %5
  %16 = getelementptr inbounds nuw i8, ptr %3, i64 16
  %17 = load ptr, ptr %16, align 8, !tbaa !9
  %18 = ptrtoint ptr %17 to i64
  %19 = and i64 %18, 1
  %.not41 = icmp eq i64 %19, 0
  br i1 %.not41, label %20, label %lean_inc.exit26

20:                                               ; preds = %lean_inc.exit27
  %.val.i29 = load i32, ptr %17, align 4, !tbaa !4
  %21 = icmp sgt i32 %.val.i29, 0
  br i1 %21, label %22, label %24, !prof !13

22:                                               ; preds = %20
  %23 = add nuw i32 %.val.i29, 1
  store i32 %23, ptr %17, align 4, !tbaa !4
  br label %lean_inc.exit26

24:                                               ; preds = %20
  %.not.i30 = icmp eq i32 %.val.i29, 0
  br i1 %.not.i30, label %lean_inc.exit26, label %25

25:                                               ; preds = %24
  tail call void @lean_inc_ref_cold(ptr noundef nonnull %17) #5
  br label %lean_inc.exit26

lean_inc.exit26:                                  ; preds = %25, %24, %22, %lean_inc.exit27
  %26 = ptrtoint ptr %3 to i64
  %27 = and i64 %26, 1
  %.not42 = icmp eq i64 %27, 0
  br i1 %.not42, label %28, label %lean_dec.exit

28:                                               ; preds = %lean_inc.exit26
  %29 = load i32, ptr %3, align 4, !tbaa !4
  %30 = icmp sgt i32 %29, 1
  br i1 %30, label %31, label %33, !prof !13

31:                                               ; preds = %28
  %32 = add nsw i32 %29, -1
  store i32 %32, ptr %3, align 4, !tbaa !4
  br label %lean_dec.exit

33:                                               ; preds = %28
  %.not.i = icmp eq i32 %29, 0
  br i1 %.not.i, label %lean_dec.exit, label %34

34:                                               ; preds = %33
  tail call void @lean_dec_ref_cold(ptr noundef nonnull %3) #5
  br label %lean_dec.exit

lean_dec.exit:                                    ; preds = %34, %33, %31, %lean_inc.exit26
  %35 = ptrtoint ptr %4 to i64
  %36 = and i64 %35, 1
  %.not43 = icmp eq i64 %36, 0
  br i1 %.not43, label %37, label %lean_inc.exit25

37:                                               ; preds = %lean_dec.exit
  %.val.i32 = load i32, ptr %4, align 4, !tbaa !4
  %38 = icmp sgt i32 %.val.i32, 0
  br i1 %38, label %39, label %41, !prof !13

39:                                               ; preds = %37
  %40 = add nuw i32 %.val.i32, 1
  store i32 %40, ptr %4, align 4, !tbaa !4
  br label %lean_inc.exit25

41:                                               ; preds = %37
  %.not.i33 = icmp eq i32 %.val.i32, 0
  br i1 %.not.i33, label %lean_inc.exit25, label %42

42:                                               ; preds = %41
  tail call void @lean_inc_ref_cold(ptr noundef nonnull %4) #5
  br label %lean_inc.exit25

lean_inc.exit25:                                  ; preds = %42, %41, %39, %lean_dec.exit
  br i1 %.not41, label %43, label %lean_inc.exit24

43:                                               ; preds = %lean_inc.exit25
  %.val.i35 = load i32, ptr %17, align 4, !tbaa !4
  %44 = icmp sgt i32 %.val.i35, 0
  br i1 %44, label %45, label %47, !prof !13

45:                                               ; preds = %43
  %46 = add nuw i32 %.val.i35, 1
  store i32 %46, ptr %17, align 4, !tbaa !4
  br label %lean_inc.exit24

47:                                               ; preds = %43
  %.not.i36 = icmp eq i32 %.val.i35, 0
  br i1 %.not.i36, label %lean_inc.exit24, label %48

48:                                               ; preds = %47
  tail call void @lean_inc_ref_cold(ptr noundef nonnull %17) #5
  br label %lean_inc.exit24

lean_inc.exit24:                                  ; preds = %48, %47, %45, %lean_inc.exit25
  %49 = ptrtoint ptr %0 to i64
  %50 = and i64 %49, 1
  %.not44 = icmp eq i64 %50, 0
  br i1 %.not44, label %51, label %lean_inc.exit

51:                                               ; preds = %lean_inc.exit24
  %.val.i38 = load i32, ptr %0, align 4, !tbaa !4
  %52 = icmp sgt i32 %.val.i38, 0
  br i1 %52, label %53, label %55, !prof !13

53:                                               ; preds = %51
  %54 = add nuw i32 %.val.i38, 1
  store i32 %54, ptr %0, align 4, !tbaa !4
  br label %lean_inc.exit

55:                                               ; preds = %51
  %.not.i39 = icmp eq i32 %.val.i38, 0
  br i1 %.not.i39, label %lean_inc.exit, label %56

56:                                               ; preds = %55
  tail call void @lean_inc_ref_cold(ptr noundef nonnull %0) #5
  br label %lean_inc.exit

lean_inc.exit:                                    ; preds = %56, %55, %53, %lean_inc.exit24
  %57 = tail call ptr @l___private_Lean_Meta_ExprLens_0__Lean_Core_viewCoordRaw___rarg(ptr noundef %0, ptr noundef %1, ptr noundef %17, ptr noundef %4)
  tail call void @lean_inc_heartbeat() #5
  %58 = tail call noalias ptr @mi_malloc_small(i64 noundef 56) #5
  %59 = icmp eq ptr %58, null
  br i1 %59, label %60, label %lean_alloc_closure.exit

60:                                               ; preds = %lean_inc.exit
  tail call void @lean_internal_panic_out_of_memory() #6
  unreachable

lean_alloc_closure.exit:                          ; preds = %lean_inc.exit
  %61 = getelementptr inbounds nuw i8, ptr %58, i64 4
  store i32 1, ptr %58, align 4, !tbaa !4
  store i32 -184549320, ptr %61, align 4
  %62 = getelementptr inbounds nuw i8, ptr %58, i64 8
  store ptr @l_Lean_Core_viewBinders___rarg___lambda__1___boxed, ptr %62, align 8, !tbaa !9
  %63 = getelementptr inbounds nuw i8, ptr %58, i64 16
  store i16 5, ptr %63, align 8, !tbaa !11
  %64 = getelementptr inbounds nuw i8, ptr %58, i64 18
  store i16 4, ptr %64, align 2, !tbaa !11
  %65 = getelementptr inbounds nuw i8, ptr %58, i64 24
  store ptr %4, ptr %65, align 8, !tbaa !9
  %66 = getelementptr inbounds nuw i8, ptr %58, i64 32
  store ptr %17, ptr %66, align 8, !tbaa !9
  %67 = getelementptr inbounds nuw i8, ptr %58, i64 40
  store ptr %0, ptr %67, align 8, !tbaa !9
  %68 = getelementptr inbounds nuw i8, ptr %58, i64 48
  store ptr %7, ptr %68, align 8, !tbaa !9
  %69 = tail call ptr @lean_apply_4(ptr noundef %2, ptr noundef nonnull inttoptr (i64 1 to ptr), ptr noundef nonnull inttoptr (i64 1 to ptr), ptr noundef %57, ptr noundef nonnull %58) #5
  ret ptr %69
}